; Function Attrs: nounwind uwtable
define void @ossl_global_properties_stop_mirroring(ptr noundef %0) local_unnamed_addr #0 {
  %2 = tail call ptr @ossl_lib_ctx_get_data(ptr noundef %0, i32 noundef 14) #7
  %.not = icmp eq ptr %2, null
  br i1 %.not, label %7, label %3

3:                                                ; preds = %1
  %4 = getelementptr inbounds nuw i8, ptr %2, i64 8
  %5 = load i8, ptr %4, align 8
  %6 = or i8 %5, 1
  store i8 %6, ptr %4, align 8
  br label %7

7:                                                ; preds = %3, %1
  ret void
}